; Function Attrs: mustprogress uwtable
define void @_ZN8QuantLib17CreditDefaultSwap9argumentsC2Ev(ptr noundef nonnull align 8 dereferenceable(144) %this, ptr nocapture noundef readonly %vtt) unnamed_addr #9 align 2 personality ptr @__gxx_personality_v0 {
entry:
  %0 = load ptr, ptr %vtt, align 8
  store ptr %0, ptr %this, align 8, !tbaa !33
  %1 = getelementptr inbounds i8, ptr %vtt, i64 8
  %2 = load ptr, ptr %1, align 8
  %vbase.offset.ptr = getelementptr i8, ptr %0, i64 -40
  %vbase.offset = load i64, ptr %vbase.offset.ptr, align 8
  %add.ptr = getelementptr inbounds i8, ptr %this, i64 %vbase.offset
  store ptr %2, ptr %add.ptr, align 8, !tbaa !33
  %side = getelementptr inbounds nuw i8, ptr %this, i64 8
  store i32 -1, ptr %side, align 8, !tbaa !147
  %notional = getelementptr inbounds nuw i8, ptr %this, i64 16
  store double 0x47EFFFFFE0000000, ptr %notional, align 8, !tbaa !149
  %upfront = getelementptr inbounds nuw i8, ptr %this, i64 24
  store i8 0, ptr %upfront, align 8, !tbaa !69
  %spread = getelementptr inbounds nuw i8, ptr %this, i64 40
  store double 0x47EFFFFFE0000000, ptr %spread, align 8, !tbaa !152
  %leg = getelementptr inbounds nuw i8, ptr %this, i64 48
  %claim = getelementptr inbounds nuw i8, ptr %this, i64 112
  tail call void @llvm.memset.p0.i64(ptr noundef nonnull align 8 dereferenceable(16) %claim, i8 0, i64 16, i1 false)
  %protectionStart = getelementptr inbounds nuw i8, ptr %this, i64 128
  tail call void @llvm.memset.p0.i64(ptr noundef nonnull align 8 dereferenceable(56) %leg, i8 0, i64 56, i1 false)
  invoke void @_ZN8QuantLib4DateC1Ev(ptr noundef nonnull align 8 dereferenceable(8) %protectionStart)
          to label %invoke.cont unwind label %lpad

invoke.cont:                                      ; preds = %entry
  %maturity = getelementptr inbounds nuw i8, ptr %this, i64 136
  invoke void @_ZN8QuantLib4DateC1Ev(ptr noundef nonnull align 8 dereferenceable(8) %maturity)
          to label %invoke.cont5 unwind label %lpad

invoke.cont5:                                     ; preds = %invoke.cont
  ret void

lpad:                                             ; preds = %invoke.cont, %entry
  %3 = landingpad { ptr, i32 }
          cleanup
  %accrualRebate = getelementptr inbounds nuw i8, ptr %this, i64 88
  %upfrontPayment = getelementptr inbounds nuw i8, ptr %this, i64 72
  tail call void @_ZN5boost10shared_ptrIN8QuantLib5ClaimEED2Ev(ptr noundef nonnull align 8 dereferenceable(16) %claim) #29
  tail call void @_ZN5boost10shared_ptrIN8QuantLib14SimpleCashFlowEED2Ev(ptr noundef nonnull align 8 dereferenceable(16) %accrualRebate) #29
  tail call void @_ZN5boost10shared_ptrIN8QuantLib14SimpleCashFlowEED2Ev(ptr noundef nonnull align 8 dereferenceable(16) %upfrontPayment) #29
  tail call void @_ZNSt6vectorIN5boost10shared_ptrIN8QuantLib8CashFlowEEESaIS4_EED2Ev(ptr noundef nonnull align 8 dereferenceable(24) %leg) #29
  resume { ptr, i32 } %3
}